target datalayout = "e-m:e-p270:32:32-p271:32:32-p272:64:64-i64:64-i128:128-f80:128-n8:16:32:64-S128"
target triple = "x86_64-pc-linux-gnu"

@.str.10 = private unnamed_addr constant [18 x i8] c"MeasurementSystem\00", align 1

; Function Attrs: inlinehint mustprogress nounwind uwtable
define internal noundef signext i8 @_ZL9U_SUCCESS10UErrorCode(i32 noundef %0) #2 {
  %2 = alloca i32, align 4
  store i32 %0, ptr %2, align 4, !tbaa !15
  %3 = load i32, ptr %2, align 4, !tbaa !15
  %4 = icmp sle i32 %3, 0
  %5 = zext i1 %4 to i8
  ret i8 %5
}

; Function Attrs: inlinehint mustprogress nounwind uwtable
define internal noundef signext i8 @_ZL9U_FAILURE10UErrorCode(i32 noundef %0) #2 {
  %2 = alloca i32, align 4
  store i32 %0, ptr %2, align 4, !tbaa !15
  %3 = load i32, ptr %2, align 4, !tbaa !15
  %4 = icmp sgt i32 %3, 0
  %5 = zext i1 %4 to i8
  ret i8 %5
}

; Function Attrs: mustprogress uwtable
define i32 @ulocdata_getMeasurementSystem_77(ptr noundef %0, ptr noundef %1) #1 {
  %3 = alloca i32, align 4
  %4 = alloca ptr, align 8
  %5 = alloca ptr, align 8
  %6 = alloca ptr, align 8
  %7 = alloca i32, align 4
  %8 = alloca i32, align 4
  %9 = alloca i32, align 4
  store ptr %0, ptr %4, align 8, !tbaa !17
  store ptr %1, ptr %5, align 8, !tbaa !22
  call void @llvm.lifetime.start.p0(i64 8, ptr %6) #9
  store ptr null, ptr %6, align 8, !tbaa !39
  call void @llvm.lifetime.start.p0(i64 4, ptr %7) #9
  store i32 3, ptr %7, align 4, !tbaa !40
  %10 = load ptr, ptr %5, align 8, !tbaa !22
  %11 = icmp eq ptr %10, null
  br i1 %11, label %17, label %12

12:                                               ; preds = %2
  %13 = load ptr, ptr %5, align 8, !tbaa !22
  %14 = load i32, ptr %13, align 4, !tbaa !15
  %15 = call noundef signext i8 @_ZL9U_FAILURE10UErrorCode(i32 noundef %14)
  %16 = icmp ne i8 %15, 0
  br i1 %16, label %17, label %19

17:                                               ; preds = %12, %2
  %18 = load i32, ptr %7, align 4, !tbaa !40
  store i32 %18, ptr %3, align 4
  store i32 1, ptr %8, align 4
  br label %35

19:                                               ; preds = %12
  %20 = load ptr, ptr %4, align 8, !tbaa !17
  %21 = load ptr, ptr %5, align 8, !tbaa !22
  %22 = call noundef ptr @_ZN12_GLOBAL__N_130measurementTypeBundleForLocaleEPKcS1_P10UErrorCode(ptr noundef %20, ptr noundef @.str.10, ptr noundef %21)
  store ptr %22, ptr %6, align 8, !tbaa !39
  call void @llvm.lifetime.start.p0(i64 4, ptr %9) #9
  %23 = load ptr, ptr %6, align 8, !tbaa !39
  %24 = load ptr, ptr %5, align 8, !tbaa !22
  %25 = call i32 @ures_getInt_77(ptr noundef %23, ptr noundef %24)
  store i32 %25, ptr %9, align 4, !tbaa !14
  %26 = load ptr, ptr %5, align 8, !tbaa !22
  %27 = load i32, ptr %26, align 4, !tbaa !15
  %28 = call noundef signext i8 @_ZL9U_SUCCESS10UErrorCode(i32 noundef %27)
  %29 = icmp ne i8 %28, 0
  br i1 %29, label %30, label %32

30:                                               ; preds = %19
  %31 = load i32, ptr %9, align 4, !tbaa !14
  store i32 %31, ptr %7, align 4, !tbaa !40
  br label %32

32:                                               ; preds = %30, %19
  %33 = load ptr, ptr %6, align 8, !tbaa !39
  call void @ures_close_77(ptr noundef %33)
  %34 = load i32, ptr %7, align 4, !tbaa !40
  store i32 %34, ptr %3, align 4
  store i32 1, ptr %8, align 4
  call void @llvm.lifetime.end.p0(i64 4, ptr %9) #9
  br label %35

35:                                               ; preds = %32, %17
  call void @llvm.lifetime.end.p0(i64 4, ptr %7) #9
  call void @llvm.lifetime.end.p0(i64 8, ptr %6) #9
  %36 = load i32, ptr %3, align 4
  ret i32 %36
}