; Function Attrs: mustprogress uwtable
define i32 @ulocdata_getMeasurementSystem_77(ptr noundef %0, ptr noundef %1) local_unnamed_addr #1 {
  %3 = icmp eq ptr %1, null
  br i1 %3, label %12, label %4

4:                                                ; preds = %2
  %5 = load i32, ptr %1, align 4, !tbaa !13
  %6 = icmp slt i32 %5, 1
  br i1 %6, label %7, label %12

7:                                                ; preds = %4
  %8 = tail call fastcc noundef ptr @_ZN12_GLOBAL__N_130measurementTypeBundleForLocaleEPKcS1_P10UErrorCode(ptr noundef %0, ptr noundef nonnull @.str.10, ptr noundef %1)
  %9 = tail call i32 @ures_getInt_77(ptr noundef %8, ptr noundef nonnull %1)
  %10 = load i32, ptr %1, align 4, !tbaa !13
  %11 = icmp sgt i32 %10, 0
  %spec.select = select i1 %11, i32 3, i32 %9
  tail call void @ures_close_77(ptr noundef %8)
  br label %12

12:                                               ; preds = %2, %4, %7
  %.0 = phi i32 [ %spec.select, %7 ], [ 3, %4 ], [ 3, %2 ]
  ret i32 %.0
}